; Function Attrs: null_pointer_is_valid sspstrong uwtable
define internal zeroext i1 @dissect_spdu_message_can_heur(ptr noundef %0, ptr noundef %1, ptr noundef %2, ptr noundef readonly captures(address_is_null) %3) #0 {
  %5 = alloca i64, align 8
  %.not.i = icmp eq ptr %3, null
  br i1 %.not.i, label %6, label %7

6:                                                ; preds = %4
  tail call void (ptr, ...) @proto_report_dissector_bug(ptr noundef nonnull @.str.311, ptr noundef nonnull @.str.312, i32 noundef 2471, ptr noundef nonnull @.str.328) #20
  unreachable

7:                                                ; preds = %4
  %8 = load i32, ptr %3, align 4
  %9 = and i32 %8, 1610612736
  %.not12.i = icmp eq i32 %9, 0
  br i1 %.not12.i, label %10, label %dissect_spdu_message_can.exit

10:                                               ; preds = %7
  %11 = getelementptr inbounds nuw i8, ptr %3, i64 12
  %12 = load i16, ptr %11, align 4
  call void @llvm.lifetime.start.p0(i64 8, ptr nonnull %5) #16
  %13 = load ptr, ptr @data_spdu_can_mappings, align 8
  %14 = icmp eq ptr %13, null
  br i1 %14, label %get_can_mapping.exit.thread.i, label %15

get_can_mapping.exit.thread.i:                    ; preds = %10
  call void @llvm.lifetime.end.p0(i64 8, ptr nonnull %5) #16
  br label %dissect_spdu_message_can.exit

15:                                               ; preds = %10
  %16 = zext i32 %8 to i64
  %17 = zext i16 %12 to i64
  %18 = shl nuw nsw i64 %17, 32
  %19 = or disjoint i64 %18, %16
  store i64 %19, ptr %5, align 8
  %20 = call ptr @g_hash_table_lookup(ptr noundef nonnull %13, ptr noundef nonnull %5)
  %21 = icmp eq ptr %20, null
  br i1 %21, label %get_can_mapping.exit.i, label %get_can_mapping.exit.thread14.i

get_can_mapping.exit.thread14.i:                  ; preds = %15
  call void @llvm.lifetime.end.p0(i64 8, ptr nonnull %5) #16
  br label %25

get_can_mapping.exit.i:                           ; preds = %15
  store i64 %16, ptr %5, align 8
  %22 = load ptr, ptr @data_spdu_can_mappings, align 8
  %23 = call ptr @g_hash_table_lookup(ptr noundef %22, ptr noundef nonnull %5)
  call void @llvm.lifetime.end.p0(i64 8, ptr nonnull %5) #16
  %24 = icmp eq ptr %23, null
  br i1 %24, label %dissect_spdu_message_can.exit, label %25

25:                                               ; preds = %get_can_mapping.exit.i, %get_can_mapping.exit.thread14.i
  %.05.i16.i = phi ptr [ %20, %get_can_mapping.exit.thread14.i ], [ %23, %get_can_mapping.exit.i ]
  %26 = getelementptr inbounds nuw i8, ptr %.05.i16.i, i64 8
  %27 = load i32, ptr %26, align 4
  %28 = call fastcc i32 @dissect_spdu_payload(ptr noundef %0, ptr noundef %1, ptr noundef %2, i32 noundef %27, i1 noundef zeroext true)
  %29 = icmp ne i32 %28, 0
  br label %dissect_spdu_message_can.exit

dissect_spdu_message_can.exit:                    ; preds = %7, %get_can_mapping.exit.thread.i, %get_can_mapping.exit.i, %25
  %.0.i = phi i1 [ false, %7 ], [ %29, %25 ], [ false, %get_can_mapping.exit.i ], [ false, %get_can_mapping.exit.thread.i ]
  ret i1 %.0.i
}